; Function Attrs: mustprogress uwtable
define void @_ZNK8QuantLib17StrippedOptionlet19performCalculationsEv(ptr nocapture noundef nonnull readonly align 8 dereferenceable(240) %this) unnamed_addr #8 align 2 {
entry:
  %nOptionletDates_ = getelementptr inbounds nuw i8, ptr %this, i64 88
  %0 = load i64, ptr %nOptionletDates_, align 8, !tbaa !92
  %cmp20.not = icmp eq i64 %0, 0
  br i1 %cmp20.not, label %for.cond.cleanup, label %for.cond2.preheader.lr.ph

for.cond2.preheader.lr.ph:                        ; preds = %entry
  %optionletVolQuotes_ = getelementptr inbounds nuw i8, ptr %this, i64 192
  %optionletVolatilities_ = getelementptr inbounds nuw i8, ptr %this, i64 216
  %.pre = load ptr, ptr %optionletVolQuotes_, align 8, !tbaa !53
  br label %for.cond2.preheader

for.cond2.preheader:                              ; preds = %for.cond2.preheader.lr.ph, %for.cond.cleanup5
  %1 = phi i64 [ %0, %for.cond2.preheader.lr.ph ], [ %5, %for.cond.cleanup5 ]
  %2 = phi ptr [ %.pre, %for.cond2.preheader.lr.ph ], [ %6, %for.cond.cleanup5 ]
  %i.021 = phi i64 [ 0, %for.cond2.preheader.lr.ph ], [ %inc16, %for.cond.cleanup5 ]
  %add.ptr.i12 = getelementptr inbounds nuw %"class.std::vector.45", ptr %2, i64 %i.021
  %_M_finish.i13 = getelementptr inbounds nuw i8, ptr %add.ptr.i12, i64 8
  %3 = load ptr, ptr %_M_finish.i13, align 8, !tbaa !111
  %4 = load ptr, ptr %add.ptr.i12, align 8, !tbaa !109
  %cmp418.not = icmp eq ptr %3, %4
  br i1 %cmp418.not, label %for.cond.cleanup5, label %for.body6

for.cond.cleanup:                                 ; preds = %for.cond.cleanup5, %entry
  ret void

for.cond.cleanup5.loopexit:                       ; preds = %_ZNK5boost10shared_ptrIN8QuantLib5QuoteEEptEv.exit
  %.pre22 = load i64, ptr %nOptionletDates_, align 8, !tbaa !92
  br label %for.cond.cleanup5

for.cond.cleanup5:                                ; preds = %for.cond.cleanup5.loopexit, %for.cond2.preheader
  %5 = phi i64 [ %.pre22, %for.cond.cleanup5.loopexit ], [ %1, %for.cond2.preheader ]
  %6 = phi ptr [ %13, %for.cond.cleanup5.loopexit ], [ %2, %for.cond2.preheader ]
  %inc16 = add nuw i64 %i.021, 1
  %cmp = icmp ult i64 %inc16, %5
  br i1 %cmp, label %for.cond2.preheader, label %for.cond.cleanup, !llvm.loop !129

for.body6:                                        ; preds = %for.cond2.preheader, %_ZNK5boost10shared_ptrIN8QuantLib5QuoteEEptEv.exit
  %7 = phi ptr [ %15, %_ZNK5boost10shared_ptrIN8QuantLib5QuoteEEptEv.exit ], [ %4, %for.cond2.preheader ]
  %j.019 = phi i64 [ %inc, %_ZNK5boost10shared_ptrIN8QuantLib5QuoteEEptEv.exit ], [ 0, %for.cond2.preheader ]
  %add.ptr.i9 = getelementptr inbounds nuw %"class.QuantLib::Handle", ptr %7, i64 %j.019
  %call10 = tail call noundef nonnull align 8 dereferenceable(16) ptr @_ZNK8QuantLib6HandleINS_5QuoteEEptEv(ptr noundef nonnull align 8 dereferenceable(16) %add.ptr.i9)
  %8 = load ptr, ptr %call10, align 8, !tbaa !130
  %cmp.not.i = icmp eq ptr %8, null
  br i1 %cmp.not.i, label %cond.false.i, label %_ZNK5boost10shared_ptrIN8QuantLib5QuoteEEptEv.exit, !prof !93

cond.false.i:                                     ; preds = %for.body6
  tail call void @_ZN5boost16assertion_failedEPKcS1_S1_l(ptr noundef nonnull @.str.23, ptr noundef nonnull @__PRETTY_FUNCTION__._ZNK5boost10shared_ptrIN8QuantLib5QuoteEEptEv, ptr noundef nonnull @.str.24, i64 noundef 784)
  %.pre.i = load ptr, ptr %call10, align 8, !tbaa !130
  br label %_ZNK5boost10shared_ptrIN8QuantLib5QuoteEEptEv.exit

_ZNK5boost10shared_ptrIN8QuantLib5QuoteEEptEv.exit: ; preds = %for.body6, %cond.false.i
  %9 = phi ptr [ %8, %for.body6 ], [ %.pre.i, %cond.false.i ]
  %vtable = load ptr, ptr %9, align 8, !tbaa !33
  %vfn = getelementptr inbounds i8, ptr %vtable, i64 16
  %10 = load ptr, ptr %vfn, align 8
  %call12 = tail call noundef double %10(ptr noundef nonnull align 8 dereferenceable(8) %9)
  %11 = load ptr, ptr %optionletVolatilities_, align 8, !tbaa !49
  %add.ptr.i10 = getelementptr inbounds nuw %"class.std::vector.26", ptr %11, i64 %i.021
  %12 = load ptr, ptr %add.ptr.i10, align 8, !tbaa !59
  %add.ptr.i11 = getelementptr inbounds nuw double, ptr %12, i64 %j.019
  store double %call12, ptr %add.ptr.i11, align 8, !tbaa !96
  %inc = add nuw i64 %j.019, 1
  %13 = load ptr, ptr %optionletVolQuotes_, align 8, !tbaa !53
  %add.ptr.i = getelementptr inbounds nuw %"class.std::vector.45", ptr %13, i64 %i.021
  %_M_finish.i = getelementptr inbounds nuw i8, ptr %add.ptr.i, i64 8
  %14 = load ptr, ptr %_M_finish.i, align 8, !tbaa !111
  %15 = load ptr, ptr %add.ptr.i, align 8, !tbaa !109
  %sub.ptr.lhs.cast.i = ptrtoint ptr %14 to i64
  %sub.ptr.rhs.cast.i = ptrtoint ptr %15 to i64
  %sub.ptr.sub.i = sub i64 %sub.ptr.lhs.cast.i, %sub.ptr.rhs.cast.i
  %sub.ptr.div.i = ashr exact i64 %sub.ptr.sub.i, 4
  %cmp4 = icmp ult i64 %inc, %sub.ptr.div.i
  br i1 %cmp4, label %for.body6, label %for.cond.cleanup5.loopexit, !llvm.loop !132
}